	.file	"lwp.c"
	.text
.Ltext0:
	.globl	WORD_SIZE
	.section	.rodata
	.align 4
	.type	WORD_SIZE, @object
	.size	WORD_SIZE, 4
WORD_SIZE:
	.long	4
	.comm	lwp_ptable,480,32
	.globl	lwp_procs
	.bss
	.align 4
	.type	lwp_procs, @object
	.size	lwp_procs, 4
lwp_procs:
	.zero	4
	.text
	.globl	new_lwp
	.type	new_lwp, @function
new_lwp:
.LFB2:
	.file 1 "lwp.c"
	.loc 1 10 0
	.cfi_startproc
	pushl	%ebp
	.cfi_def_cfa_offset 8
	.cfi_offset 5, -8
	movl	%esp, %ebp
	.cfi_def_cfa_register 5
	subl	$40, %esp
	.loc 1 20 0
	movl	lwp_procs, %eax
	cmpl	$30, %eax
	jne	.L2
	.loc 1 22 0
	movl	$-1, %eax
	jmp	.L3
.L2:
	.loc 1 29 0
	movl	$0, -16(%ebp)
	jmp	.L4
.L7:
	.loc 1 30 0
	movl	-16(%ebp), %eax
	sall	$4, %eax
	addl	$lwp_ptable+4, %eax
	movl	(%eax), %eax
	testl	%eax, %eax
	jne	.L5
	.loc 1 32 0
	movl	-16(%ebp), %eax
	movl	%eax, -12(%ebp)
	.loc 1 33 0
	jmp	.L6
.L5:
	.loc 1 29 0
	addl	$1, -16(%ebp)
.L4:
	.loc 1 29 0 is_stmt 0 discriminator 1
	cmpl	$30, -16(%ebp)
	jle	.L7
.L6:
	.loc 1 36 0 is_stmt 1
	movl	-12(%ebp), %eax
	addl	$1, %eax
	movl	-12(%ebp), %edx
	sall	$4, %edx
	addl	$lwp_ptable, %edx
	movl	%eax, (%edx)
	.loc 1 37 0
	movl	-12(%ebp), %eax
	sall	$4, %eax
	leal	lwp_ptable+8(%eax), %edx
	movl	16(%ebp), %eax
	movl	%eax, (%edx)
	.loc 1 39 0
	movl	$4, %eax
	imull	16(%ebp), %eax
	movl	%eax, (%esp)
	call	malloc
	movl	-12(%ebp), %edx
	sall	$4, %edx
	addl	$lwp_ptable+4, %edx
	movl	%eax, (%edx)
	.loc 1 41 0
	movl	-12(%ebp), %eax
	sall	$4, %eax
	addl	$lwp_ptable+4, %eax
	movl	(%eax), %eax
	movl	%eax, -20(%ebp)
	.loc 1 42 0
	movl	-12(%ebp), %eax
	sall	$4, %eax
	leal	lwp_ptable+12(%eax), %edx
	movl	-20(%ebp), %eax
	movl	%eax, (%edx)
	.loc 1 43 0
	movl	$4, %eax
	imull	16(%ebp), %eax
	sall	$2, %eax
	addl	%eax, -20(%ebp)
	.loc 1 45 0
	movl	12(%ebp), %edx
	movl	-20(%ebp), %eax
	movl	%edx, (%eax)
	.loc 1 46 0
	subl	$4, -20(%ebp)
	.loc 1 48 0
	movl	$exit, %edx
	movl	-20(%ebp), %eax
	movl	%edx, (%eax)
	.loc 1 49 0
	subl	$4, -20(%ebp)
	.loc 1 51 0
	movl	8(%ebp), %edx
	movl	-20(%ebp), %eax
	movl	%edx, (%eax)
	.loc 1 52 0
	subl	$4, -20(%ebp)
	.loc 1 54 0
	movl	-20(%ebp), %eax
	movl	$-17973521, (%eax)
	.loc 1 56 0
	movl	-20(%ebp), %eax
	movl	%eax, -24(%ebp)
	.loc 1 57 0
	subl	$28, -20(%ebp)
	.loc 1 59 0
	movl	-24(%ebp), %edx
	movl	-20(%ebp), %eax
	movl	%edx, (%eax)
	.loc 1 61 0
	movl	lwp_procs, %eax
	addl	$1, %eax
	movl	%eax, lwp_procs
	.loc 1 63 0
	movl	-12(%ebp), %eax
	sall	$4, %eax
	addl	$lwp_ptable, %eax
	movl	(%eax), %eax
.L3:
	.loc 1 65 0
	leave
	.cfi_restore 5
	.cfi_def_cfa 4, 4
	ret
	.cfi_endproc
.LFE2:
	.size	new_lwp, .-new_lwp
.Letext0:
	.file 2 "/usr/lib/gcc/x86_64-redhat-linux/4.8.5/include/stddef.h"
	.file 3 "lwp.h"
	.section	.note.GNU-stack,"",@progbits
